08048474 <ft_des>:
 8048474:	55                   	push   ebp
 8048475:	89 e5                	mov    ebp,esp
 8048477:	57                   	push   edi
 8048478:	83 ec 44             	sub    esp,0x44
 804847b:	8b 45 08             	mov    eax,DWORD PTR [ebp+0x8]
 804847e:	89 04 24             	mov    DWORD PTR [esp],eax
 8048481:	e8 ea fe ff ff       	call   8048370 <strdup@plt>
 8048486:	89 45 f4             	mov    DWORD PTR [ebp-0xc],eax
 8048489:	c7 45 e8 00 00 00 00 	mov    DWORD PTR [ebp-0x18],0x0
 8048490:	c7 45 e4 00 00 00 00 	mov    DWORD PTR [ebp-0x1c],0x0
 8048497:	e9 bf 00 00 00       	jmp    804855b <ft_des+0xe7> ->jump

 804849c:	83 7d e8 06          	cmp    DWORD PTR [ebp-0x18],0x6 <- second jump
 80484a0:	75 07                	jne    80484a9 <ft_des+0x35>
 80484a2:	c7 45 e8 00 00 00 00 	mov    DWORD PTR [ebp-0x18],0x0
 80484a9:	8b 45 e4             	mov    eax,DWORD PTR [ebp-0x1c]
 80484ac:	83 e0 01             	and    eax,0x1
 80484af:	84 c0                	test   al,al == 0
 80484b1:	74 4c                	je     80484ff <ft_des+0x8b> -> 3rd jump 80484ff

 80484b3:	c7 45 ec 00 00 00 00 	mov    DWORD PTR [ebp-0x14],0x0
 80484ba:	eb 2e                	jmp    80484ea <ft_des+0x76>
 80484bc:	8b 45 e4             	mov    eax,DWORD PTR [ebp-0x1c]
 80484bf:	8b 55 f4             	mov    edx,DWORD PTR [ebp-0xc]
 80484c2:	01 d0                	add    eax,edx
 80484c4:	0f b6 10             	movzx  edx,BYTE PTR [eax]
 80484c7:	83 c2 01             	add    edx,0x1
 80484ca:	88 10                	mov    BYTE PTR [eax],dl
 80484cc:	8b 45 e4             	mov    eax,DWORD PTR [ebp-0x1c]
 80484cf:	8b 55 f4             	mov    edx,DWORD PTR [ebp-0xc]
 80484d2:	01 d0                	add    eax,edx
 80484d4:	0f b6 00             	movzx  eax,BYTE PTR [eax]
 80484d7:	3c 7f                	cmp    al,0x7f
 80484d9:	75 0b                	jne    80484e6 <ft_des+0x72>
 80484db:	8b 45 e4             	mov    eax,DWORD PTR [ebp-0x1c]
 80484de:	8b 55 f4             	mov    edx,DWORD PTR [ebp-0xc]
 80484e1:	01 d0                	add    eax,edx
 80484e3:	c6 00 20             	mov    BYTE PTR [eax],0x20
 80484e6:	83 45 ec 01          	add    DWORD PTR [ebp-0x14],0x1
 80484ea:	8b 45 e8             	mov    eax,DWORD PTR [ebp-0x18]
 80484ed:	05 c0 86 04 08       	add    eax,0x80486c0
 80484f2:	0f b6 00             	movzx  eax,BYTE PTR [eax]
 80484f5:	0f be c0             	movsx  eax,al
 80484f8:	3b 45 ec             	cmp    eax,DWORD PTR [ebp-0x14]
 80484fb:	7f bf                	jg     80484bc <ft_des+0x48>
 80484fd:	eb 54                	jmp    8048553 <ft_des+0xdf>

 80484ff:	8b 45 e4             	mov    eax,DWORD PTR [ebp-0x1c] <-- 3rd jump
 8048502:	83 e0 01             	and    eax,0x1
 8048505:	85 c0                	test   eax,eax
 8048507:	75 4a                	jne    8048553 <ft_des+0xdf> --> 4th jump

 8048509:	c7 45 f0 00 00 00 00 	mov    DWORD PTR [ebp-0x10],0x0
 8048510:	eb 2e                	jmp    8048540 <ft_des+0xcc>
 8048512:	8b 45 e4             	mov    eax,DWORD PTR [ebp-0x1c]
 8048515:	8b 55 f4             	mov    edx,DWORD PTR [ebp-0xc]
 8048518:	01 d0                	add    eax,edx
 804851a:	0f b6 10             	movzx  edx,BYTE PTR [eax]
 804851d:	83 ea 01             	sub    edx,0x1
 8048520:	88 10                	mov    BYTE PTR [eax],dl
 8048522:	8b 45 e4             	mov    eax,DWORD PTR [ebp-0x1c]
 8048525:	8b 55 f4             	mov    edx,DWORD PTR [ebp-0xc]
 8048528:	01 d0                	add    eax,edx
 804852a:	0f b6 00             	movzx  eax,BYTE PTR [eax]
 804852d:	3c 1f                	cmp    al,0x1f
 804852f:	75 0b                	jne    804853c <ft_des+0xc8>
 8048531:	8b 45 e4             	mov    eax,DWORD PTR [ebp-0x1c]
 8048534:	8b 55 f4             	mov    edx,DWORD PTR [ebp-0xc]
 8048537:	01 d0                	add    eax,edx
 8048539:	c6 00 7e             	mov    BYTE PTR [eax],0x7e
 804853c:	83 45 f0 01          	add    DWORD PTR [ebp-0x10],0x1
 8048540:	8b 45 e8             	mov    eax,DWORD PTR [ebp-0x18]
 8048543:	05 c0 86 04 08       	add    eax,0x80486c0
 8048548:	0f b6 00             	movzx  eax,BYTE PTR [eax]
 804854b:	0f be c0             	movsx  eax,al
 804854e:	3b 45 f0             	cmp    eax,DWORD PTR [ebp-0x10]
 8048551:	7f bf                	jg     8048512 <ft_des+0x9e>

 8048553:	83 45 e4 01          	add    DWORD PTR [ebp-0x1c],0x1 <-- 4th jmp
 8048557:	83 45 e8 01          	add    DWORD PTR [ebp-0x18],0x1

 804855b:	8b 45 f4             	mov    eax,DWORD PTR [ebp-0xc]			<-- first jump
 804855e:	c7 45 d4 ff ff ff ff 	mov    DWORD PTR [ebp-0x2c],0xffffffff
 8048565:	89 c2                	mov    edx,eax
 8048567:	b8 00 00 00 00       	mov    eax,0x0
 804856c:	8b 4d d4             	mov    ecx,DWORD PTR [ebp-0x2c]
 804856f:	89 d7                	mov    edi,edx
 8048571:	f2 ae                	repnz scas al,BYTE PTR es:[edi]
 8048573:	89 c8                	mov    eax,ecx
 8048575:	f7 d0                	not    eax
 8048577:	83 e8 01             	sub    eax,0x1
 804857a:	3b 45 e4             	cmp    eax,DWORD PTR [ebp-0x1c]
 804857d:	0f 87 19 ff ff ff    	ja     804849c <ft_des+0x28>       --> second jump

 8048583:	8b 45 f4             	mov    eax,DWORD PTR [ebp-0xc]
 8048586:	83 c4 44             	add    esp,0x44
 8048589:	5f                   	pop    edi
 804858a:	5d                   	pop    ebp
 804858b:	c3                   	ret

0804858c <main>:
 804858c:	55                   	push   ebp
 804858d:	89 e5                	mov    ebp,esp
 804858f:	83 e4 f0             	and    esp,0xfffffff0
 8048592:	83 ec 10             	sub    esp,0x10
 8048595:	e8 e6 fd ff ff       	call   8048380 <getuid@plt>
 804859a:	3d 92 10 00 00       	cmp    eax,0x1092
 804859f:	74 2a                	je     80485cb <main+0x3f>
 80485a1:	e8 da fd ff ff       	call   8048380 <getuid@plt>
 80485a6:	ba c8 86 04 08       	mov    edx,0x80486c8
 80485ab:	c7 44 24 08 92 10 00 	mov    DWORD PTR [esp+0x8],0x1092
 80485b2:	00
 80485b3:	89 44 24 04          	mov    DWORD PTR [esp+0x4],eax
 80485b7:	89 14 24             	mov    DWORD PTR [esp],edx
 80485ba:	e8 a1 fd ff ff       	call   8048360 <printf@plt>
 80485bf:	c7 04 24 01 00 00 00 	mov    DWORD PTR [esp],0x1
 80485c6:	e8 d5 fd ff ff       	call   80483a0 <exit@plt>
 80485cb:	c7 04 24 ef 86 04 08 	mov    DWORD PTR [esp],0x80486ef
 80485d2:	e8 9d fe ff ff       	call   8048474 <ft_des>
 80485d7:	ba 09 87 04 08       	mov    edx,0x8048709
 80485dc:	89 44 24 04          	mov    DWORD PTR [esp+0x4],eax
 80485e0:	89 14 24             	mov    DWORD PTR [esp],edx
 80485e3:	e8 78 fd ff ff       	call   8048360 <printf@plt>
 80485e8:	c9                   	leave
 80485e9:	c3                   	ret
 80485ea:	90                   	nop
 80485eb:	90                   	nop
 80485ec:	90                   	nop
 80485ed:	90                   	nop
 80485ee:	90                   	nop
 80485ef:	90                   	nop
